target datalayout = "e-m:e-p270:32:32-p271:32:32-p272:64:64-i64:64-i128:128-f80:128-n8:16:32:64-S128"
target triple = "x86_64-pc-linux-gnu"

%struct._php_stream_ops = type { ptr, ptr, ptr, ptr, ptr, ptr, ptr, ptr, ptr }
%struct._php_stream = type { ptr, ptr, %struct._php_stream_filter_chain, %struct._php_stream_filter_chain, ptr, ptr, %struct._zval_struct, i16, [16 x i8], i32, ptr, ptr, ptr, ptr, i64, ptr, i64, i64, i64, i64, ptr }
%struct._php_stream_filter_chain = type { ptr, ptr, ptr }
%struct._zval_struct = type { %union._zend_value, %union.anon, %union.anon.2 }
%union._zend_value = type { i64 }
%union.anon = type { i32 }
%union.anon.2 = type { i32 }
%struct.php_stdio_stream_data = type { ptr, i32, i32, i32, ptr, ptr, i64, %struct.stat }
%struct.stat = type { i64, i64, i64, i32, i32, i32, i32, i64, i64, i64, i64, %struct.timespec, %struct.timespec, %struct.timespec, [3 x i64] }
%struct.timespec = type { i64, i64 }

@php_stream_stdio_ops = dso_local global %struct._php_stream_ops { ptr @php_stdiop_write, ptr @php_stdiop_read, ptr @php_stdiop_close, ptr @php_stdiop_flush, ptr @.str.3, ptr @php_stdiop_seek, ptr @php_stdiop_cast, ptr @php_stdiop_stat, ptr @php_stdiop_set_option }, align 8

; Function Attrs: nounwind uwtable
define dso_local ptr @_php_stream_fopen_from_pipe(ptr noundef %0, ptr noundef %1) #0 {
  %3 = alloca ptr, align 8
  %4 = alloca ptr, align 8
  %5 = alloca ptr, align 8
  %6 = alloca ptr, align 8
  store ptr %0, ptr %3, align 8, !tbaa !51
  store ptr %1, ptr %4, align 8, !tbaa !4
  call void @llvm.lifetime.start.p0(i64 8, ptr %5) #13
  call void @llvm.lifetime.start.p0(i64 8, ptr %6) #13
  %7 = call noalias ptr @_emalloc_192()
  store ptr %7, ptr %5, align 8, !tbaa !31
  %8 = load ptr, ptr %5, align 8, !tbaa !31
  call void @llvm.memset.p0.i64(ptr align 8 %8, i8 0, i64 192, i1 false)
  %9 = load ptr, ptr %3, align 8, !tbaa !51
  %10 = load ptr, ptr %5, align 8, !tbaa !31
  %11 = getelementptr inbounds nuw %struct.php_stdio_stream_data, ptr %10, i32 0, i32 0
  store ptr %9, ptr %11, align 8, !tbaa !42
  %12 = load ptr, ptr %5, align 8, !tbaa !31
  %13 = getelementptr inbounds nuw %struct.php_stdio_stream_data, ptr %12, i32 0, i32 2
  %14 = load i32, ptr %13, align 4
  %15 = and i32 %14, -33
  %16 = or i32 %15, 0
  store i32 %16, ptr %13, align 4
  %17 = load ptr, ptr %5, align 8, !tbaa !31
  %18 = getelementptr inbounds nuw %struct.php_stdio_stream_data, ptr %17, i32 0, i32 2
  %19 = load i32, ptr %18, align 4
  %20 = and i32 %19, -3
  %21 = or i32 %20, 2
  store i32 %21, ptr %18, align 4
  %22 = load ptr, ptr %5, align 8, !tbaa !31
  %23 = getelementptr inbounds nuw %struct.php_stdio_stream_data, ptr %22, i32 0, i32 3
  store i32 8, ptr %23, align 8, !tbaa !41
  %24 = load ptr, ptr %5, align 8, !tbaa !31
  %25 = getelementptr inbounds nuw %struct.php_stdio_stream_data, ptr %24, i32 0, i32 2
  %26 = load i32, ptr %25, align 4
  %27 = and i32 %26, -2
  %28 = or i32 %27, 1
  store i32 %28, ptr %25, align 4
  %29 = load ptr, ptr %3, align 8, !tbaa !51
  %30 = call i32 @fileno(ptr noundef %29) #13
  %31 = load ptr, ptr %5, align 8, !tbaa !31
  %32 = getelementptr inbounds nuw %struct.php_stdio_stream_data, ptr %31, i32 0, i32 1
  store i32 %30, ptr %32, align 8, !tbaa !43
  %33 = load ptr, ptr %5, align 8, !tbaa !31
  %34 = getelementptr inbounds nuw %struct.php_stdio_stream_data, ptr %33, i32 0, i32 4
  store ptr null, ptr %34, align 8, !tbaa !37
  %35 = load ptr, ptr %5, align 8, !tbaa !31
  %36 = load ptr, ptr %4, align 8, !tbaa !4
  %37 = call ptr @_php_stream_alloc(ptr noundef @php_stream_stdio_ops, ptr noundef %35, ptr noundef null, ptr noundef %36)
  store ptr %37, ptr %6, align 8, !tbaa !18
  %38 = load ptr, ptr %6, align 8, !tbaa !18
  %39 = getelementptr inbounds nuw %struct._php_stream, ptr %38, i32 0, i32 9
  %40 = load i32, ptr %39, align 4, !tbaa !46
  %41 = or i32 %40, 1
  store i32 %41, ptr %39, align 4, !tbaa !46
  %42 = load ptr, ptr %6, align 8, !tbaa !18
  call void @llvm.lifetime.end.p0(i64 8, ptr %6) #13
  call void @llvm.lifetime.end.p0(i64 8, ptr %5) #13
  ret ptr %42
}