; Function Attrs: nounwind uwtable
define dso_local ptr @_php_stream_fopen_from_pipe(ptr noundef %0, ptr noundef %1) local_unnamed_addr #3 {
  %3 = tail call noalias ptr @_emalloc_192() #17
  %4 = getelementptr inbounds nuw i8, ptr %3, i64 16
  tail call void @llvm.memset.p0.i64(ptr noundef nonnull align 8 dereferenceable(192) %4, i8 0, i64 176, i1 false)
  store ptr %0, ptr %3, align 8, !tbaa !36
  %5 = getelementptr inbounds nuw i8, ptr %3, i64 12
  %6 = getelementptr inbounds nuw i8, ptr %3, i64 16
  store i32 8, ptr %6, align 8, !tbaa !12
  store i32 3, ptr %5, align 4
  %7 = tail call i32 @fileno(ptr noundef %0) #17
  %8 = getelementptr inbounds nuw i8, ptr %3, i64 8
  store i32 %7, ptr %8, align 8, !tbaa !19
  %9 = getelementptr inbounds nuw i8, ptr %3, i64 24
  store ptr null, ptr %9, align 8, !tbaa !35
  %10 = tail call ptr @_php_stream_alloc(ptr noundef nonnull @php_stream_stdio_ops, ptr noundef nonnull %3, ptr noundef null, ptr noundef %1) #17
  %11 = getelementptr inbounds nuw i8, ptr %10, i64 116
  %12 = load i32, ptr %11, align 4, !tbaa !38
  %13 = or i32 %12, 1
  store i32 %13, ptr %11, align 4, !tbaa !38
  ret ptr %10
}